; Function Attrs: nounwind uwtable
define void @Fra_SmlAssignRandom(ptr noundef captures(none) %0, ptr noundef readonly captures(none) %1) local_unnamed_addr #6 {
  %3 = getelementptr inbounds nuw i8, ptr %1, i64 36
  %4 = load i32, ptr %3, align 4, !tbaa !22
  %5 = getelementptr inbounds nuw i8, ptr %0, i64 40
  %6 = getelementptr inbounds nuw i8, ptr %0, i64 20
  %7 = load i32, ptr %6, align 4, !tbaa !25
  %8 = mul nsw i32 %7, %4
  %9 = sext i32 %8 to i64
  %10 = getelementptr inbounds i32, ptr %5, i64 %9
  %11 = icmp sgt i32 %7, 0
  br i1 %11, label %.lr.ph, label %._crit_edge

.lr.ph:                                           ; preds = %2, %.lr.ph
  %indvars.iv = phi i64 [ %indvars.iv.next, %.lr.ph ], [ 0, %2 ]
  %12 = tail call i32 @Aig_ManRandom(i32 noundef 0) #22
  %13 = getelementptr inbounds nuw i32, ptr %10, i64 %indvars.iv
  store i32 %12, ptr %13, align 4, !tbaa !28
  %indvars.iv.next = add nuw nsw i64 %indvars.iv, 1
  %14 = load i32, ptr %6, align 4, !tbaa !25
  %15 = sext i32 %14 to i64
  %16 = icmp slt i64 %indvars.iv.next, %15
  br i1 %16, label %.lr.ph, label %._crit_edge, !llvm.loop !82

._crit_edge:                                      ; preds = %.lr.ph, %2
  ret void
}